target datalayout = "e-m:e-p270:32:32-p271:32:32-p272:64:64-i64:64-i128:128-f80:128-n8:16:32:64-S128"
target triple = "x86_64-pc-linux-gnu"

%struct._aim_client_capability = type { ptr, %struct._e_guid_t }
%struct._e_guid_t = type { i32, i16, i16, [8 x i8] }

@hf_aim_nickinfo_short_caps = internal global i32 0, align 4
@.str.110 = private unnamed_addr constant [8 x i8] c"Unknown\00", align 1
@ett_aim_nickinfo_short_caps = internal global i32 0, align 4
@.str.535 = private unnamed_addr constant [12 x i8] c"%s (0x%04x)\00", align 1
@.str.693 = private unnamed_addr constant [31 x i8] c"Short Client Capabilities List\00", align 1
@__const.aim_find_short_capability.clsid = private unnamed_addr constant %struct._e_guid_t { i32 155582464, i16 19583, i16 4561, [8 x i8] c"\82\22DEST\00\00" }, align 4

; Function Attrs: nounwind null_pointer_is_valid sspstrong uwtable
define internal ptr @aim_find_capability(i64 %0, i64 %1) #3 {
  %3 = alloca ptr, align 8
  %4 = alloca %struct._e_guid_t, align 4
  %5 = alloca i32, align 4
  %6 = alloca ptr, align 8
  %7 = alloca i32, align 4
  %8 = getelementptr inbounds nuw { i64, i64 }, ptr %4, i32 0, i32 0
  store i64 %0, ptr %8, align 4
  %9 = getelementptr inbounds nuw { i64, i64 }, ptr %4, i32 0, i32 1
  store i64 %1, ptr %9, align 4
  call void @llvm.lifetime.start.p0(i64 4, ptr %5) #13
  store i32 0, ptr %5, align 4
  br label %10

10:                                               ; preds = %31, %2
  %11 = load i32, ptr %5, align 4
  %12 = sext i32 %11 to i64
  %13 = getelementptr [34 x %struct._aim_client_capability], ptr @known_client_caps, i64 0, i64 %12
  %14 = getelementptr inbounds nuw %struct._aim_client_capability, ptr %13, i32 0, i32 0
  %15 = load ptr, ptr %14, align 8
  %16 = icmp ne ptr %15, null
  br i1 %16, label %17, label %34

17:                                               ; preds = %10
  call void @llvm.lifetime.start.p0(i64 8, ptr %6) #13
  %18 = load i32, ptr %5, align 4
  %19 = sext i32 %18 to i64
  %20 = getelementptr [34 x %struct._aim_client_capability], ptr @known_client_caps, i64 0, i64 %19
  store ptr %20, ptr %6, align 8
  %21 = load ptr, ptr %6, align 8
  %22 = getelementptr inbounds nuw %struct._aim_client_capability, ptr %21, i32 0, i32 1
  %23 = call i32 @memcmp(ptr noundef %22, ptr noundef %4, i64 noundef 16) #16
  %24 = icmp eq i32 %23, 0
  br i1 %24, label %25, label %27

25:                                               ; preds = %17
  %26 = load ptr, ptr %6, align 8
  store ptr %26, ptr %3, align 8
  store i32 1, ptr %7, align 4
  br label %28

27:                                               ; preds = %17
  store i32 0, ptr %7, align 4
  br label %28

28:                                               ; preds = %27, %25
  call void @llvm.lifetime.end.p0(i64 8, ptr %6) #13
  %29 = load i32, ptr %7, align 4
  switch i32 %29, label %35 [
    i32 0, label %30
  ]

30:                                               ; preds = %28
  br label %31

31:                                               ; preds = %30
  %32 = load i32, ptr %5, align 4
  %33 = add i32 %32, 1
  store i32 %33, ptr %5, align 4
  br label %10, !llvm.loop !20

34:                                               ; preds = %10
  store ptr null, ptr %3, align 8
  store i32 1, ptr %7, align 4
  br label %35

35:                                               ; preds = %34, %28
  call void @llvm.lifetime.end.p0(i64 4, ptr %5) #13
  %36 = load ptr, ptr %3, align 8
  ret ptr %36
}

; Function Attrs: nounwind null_pointer_is_valid sspstrong uwtable
define internal ptr @aim_find_short_capability(i16 noundef zeroext %0) #3 {
  %2 = alloca i16, align 2
  %3 = alloca %struct._e_guid_t, align 4
  store i16 %0, ptr %2, align 2
  call void @llvm.lifetime.start.p0(i64 16, ptr %3) #13
  call void @llvm.memcpy.p0.p0.i64(ptr align 4 %3, ptr align 4 @__const.aim_find_short_capability.clsid, i64 16, i1 false)
  %4 = load i16, ptr %2, align 2
  %5 = zext i16 %4 to i32
  %6 = getelementptr inbounds nuw %struct._e_guid_t, ptr %3, i32 0, i32 0
  %7 = load i32, ptr %6, align 4
  %8 = or i32 %7, %5
  store i32 %8, ptr %6, align 4
  %9 = getelementptr inbounds nuw { i64, i64 }, ptr %3, i32 0, i32 0
  %10 = load i64, ptr %9, align 4
  %11 = getelementptr inbounds nuw { i64, i64 }, ptr %3, i32 0, i32 1
  %12 = load i64, ptr %11, align 4
  %13 = call ptr @aim_find_capability(i64 %10, i64 %12)
  call void @llvm.lifetime.end.p0(i64 16, ptr %3) #13
  ret ptr %13
}

; Function Attrs: null_pointer_is_valid sspstrong uwtable
define internal i32 @dissect_aim_short_capability(ptr noundef %0, ptr noundef %1, i32 noundef %2) #0 {
  %4 = alloca ptr, align 8
  %5 = alloca ptr, align 8
  %6 = alloca i32, align 4
  %7 = alloca ptr, align 8
  %8 = alloca i16, align 2
  store ptr %0, ptr %4, align 8
  store ptr %1, ptr %5, align 8
  store i32 %2, ptr %6, align 4
  call void @llvm.lifetime.start.p0(i64 8, ptr %7) #13
  call void @llvm.lifetime.start.p0(i64 2, ptr %8) #13
  %9 = load ptr, ptr %5, align 8
  %10 = load i32, ptr %6, align 4
  %11 = call zeroext i16 @tvb_get_ntohs(ptr noundef %9, i32 noundef %10)
  store i16 %11, ptr %8, align 2
  %12 = load i16, ptr %8, align 2
  %13 = call ptr @aim_find_short_capability(i16 noundef zeroext %12)
  store ptr %13, ptr %7, align 8
  %14 = load ptr, ptr %4, align 8
  %15 = load i32, ptr @hf_aim_nickinfo_short_caps, align 4
  %16 = load ptr, ptr %5, align 8
  %17 = load i32, ptr %6, align 4
  %18 = load i16, ptr %8, align 2
  %19 = zext i16 %18 to i32
  %20 = load ptr, ptr %7, align 8
  %21 = icmp ne ptr %20, null
  br i1 %21, label %22, label %26

22:                                               ; preds = %3
  %23 = load ptr, ptr %7, align 8
  %24 = getelementptr inbounds nuw %struct._aim_client_capability, ptr %23, i32 0, i32 0
  %25 = load ptr, ptr %24, align 8
  br label %27

26:                                               ; preds = %3
  br label %27

27:                                               ; preds = %26, %22
  %28 = phi ptr [ %25, %22 ], [ @.str.110, %26 ]
  %29 = load i16, ptr %8, align 2
  %30 = zext i16 %29 to i32
  %31 = call ptr (ptr, i32, ptr, i32, i32, i32, ptr, ...) @proto_tree_add_uint_format(ptr noundef %14, i32 noundef %15, ptr noundef %16, i32 noundef %17, i32 noundef 2, i32 noundef %19, ptr noundef @.str.535, ptr noundef %28, i32 noundef %30)
  %32 = load i32, ptr %6, align 4
  %33 = add i32 %32, 2
  call void @llvm.lifetime.end.p0(i64 2, ptr %8) #13
  call void @llvm.lifetime.end.p0(i64 8, ptr %7) #13
  ret i32 %33
}

; Function Attrs: null_pointer_is_valid sspstrong uwtable
define internal i32 @dissect_aim_tlv_value_client_short_capabilities(ptr noundef %0, i16 noundef zeroext %1, ptr noundef %2, ptr noundef %3) #0 {
  %5 = alloca ptr, align 8
  %6 = alloca i16, align 2
  %7 = alloca ptr, align 8
  %8 = alloca ptr, align 8
  %9 = alloca i32, align 4
  %10 = alloca ptr, align 8
  store ptr %0, ptr %5, align 8
  store i16 %1, ptr %6, align 2
  store ptr %2, ptr %7, align 8
  store ptr %3, ptr %8, align 8
  call void @llvm.lifetime.start.p0(i64 4, ptr %9) #13
  store i32 0, ptr %9, align 4
  call void @llvm.lifetime.start.p0(i64 8, ptr %10) #13
  %11 = load ptr, ptr %5, align 8
  call void (ptr, ptr, ...) @proto_item_set_text(ptr noundef %11, ptr noundef @.str.693)
  %12 = load ptr, ptr %5, align 8
  %13 = load i32, ptr @ett_aim_nickinfo_short_caps, align 4
  %14 = call ptr @proto_item_add_subtree(ptr noundef %12, i32 noundef %13)
  store ptr %14, ptr %10, align 8
  br label %15

15:                                               ; preds = %20, %4
  %16 = load ptr, ptr %7, align 8
  %17 = load i32, ptr %9, align 4
  %18 = call i32 @tvb_reported_length_remaining(ptr noundef %16, i32 noundef %17)
  %19 = icmp sgt i32 %18, 0
  br i1 %19, label %20, label %25

20:                                               ; preds = %15
  %21 = load ptr, ptr %10, align 8
  %22 = load ptr, ptr %7, align 8
  %23 = load i32, ptr %9, align 4
  %24 = call i32 @dissect_aim_short_capability(ptr noundef %21, ptr noundef %22, i32 noundef %23)
  store i32 %24, ptr %9, align 4
  br label %15, !llvm.loop !19

25:                                               ; preds = %15
  %26 = load ptr, ptr %7, align 8
  %27 = call i32 @tvb_reported_length(ptr noundef %26)
  call void @llvm.lifetime.end.p0(i64 8, ptr %10) #13
  call void @llvm.lifetime.end.p0(i64 4, ptr %9) #13
  ret i32 %27
}