; Function Attrs: null_pointer_is_valid sspstrong uwtable
define internal i32 @dissect_aim_tlv_value_client_short_capabilities(ptr noundef %0, i16 zeroext %1, ptr noundef %2, ptr readnone captures(none) %3) #0 {
  %5 = alloca %struct._e_guid_t, align 8
  tail call void (ptr, ptr, ...) @proto_item_set_text(ptr noundef %0, ptr noundef nonnull @.str.693)
  %6 = load i32, ptr @ett_aim_nickinfo_short_caps, align 4
  %7 = tail call ptr @proto_item_add_subtree(ptr noundef %0, i32 noundef %6)
  %8 = tail call i32 @tvb_reported_length_remaining(ptr noundef %2, i32 noundef 0)
  %9 = icmp sgt i32 %8, 0
  br i1 %9, label %.lr.ph, label %._crit_edge

.lr.ph:                                           ; preds = %4
  %10 = getelementptr inbounds nuw i8, ptr %5, i64 8
  br label %11

11:                                               ; preds = %.lr.ph, %dissect_aim_short_capability.exit
  %.08 = phi i32 [ 0, %.lr.ph ], [ %27, %dissect_aim_short_capability.exit ]
  %12 = tail call zeroext i16 @tvb_get_ntohs(ptr noundef %2, i32 noundef %.08)
  %13 = zext i16 %12 to i64
  %.sroa.0.sroa.0.0.insert.insert.i.i = or disjoint i64 %13, 1283891477277442048
  call void @llvm.lifetime.start.p0(i64 16, ptr nonnull %5)
  store i64 %.sroa.0.sroa.0.0.insert.insert.i.i, ptr %5, align 8
  store i64 92716621111938, ptr %10, align 8
  br label %17

14:                                               ; preds = %17
  %indvars.iv.next.i.i.i = add nuw nsw i64 %indvars.iv.i.i.i, 1
  %15 = getelementptr [34 x %struct._aim_client_capability], ptr @known_client_caps, i64 0, i64 %indvars.iv.next.i.i.i
  %exitcond.i.i.i = icmp eq i64 %indvars.iv.next.i.i.i, 33
  br i1 %exitcond.i.i.i, label %aim_find_short_capability.exit.thread.i, label %17, !llvm.loop !18

aim_find_short_capability.exit.thread.i:          ; preds = %14
  call void @llvm.lifetime.end.p0(i64 16, ptr nonnull %5)
  %16 = load i32, ptr @hf_aim_nickinfo_short_caps, align 4
  br label %dissect_aim_short_capability.exit

17:                                               ; preds = %14, %11
  %indvars.iv.i.i.i = phi i64 [ 0, %11 ], [ %indvars.iv.next.i.i.i, %14 ]
  %18 = phi ptr [ @known_client_caps, %11 ], [ %15, %14 ]
  %19 = getelementptr inbounds nuw i8, ptr %18, i64 8
  %bcmp.i.i.i = call i32 @bcmp(ptr noundef nonnull dereferenceable(16) %19, ptr noundef nonnull dereferenceable(16) %5, i64 16)
  %.not8.i.i.i = icmp eq i32 %bcmp.i.i.i, 0
  br i1 %.not8.i.i.i, label %aim_find_short_capability.exit.i, label %14

aim_find_short_capability.exit.i:                 ; preds = %17
  call void @llvm.lifetime.end.p0(i64 16, ptr nonnull %5)
  %20 = load i32, ptr @hf_aim_nickinfo_short_caps, align 4
  %.not.i = icmp eq ptr %18, null
  br i1 %.not.i, label %dissect_aim_short_capability.exit, label %21

21:                                               ; preds = %aim_find_short_capability.exit.i
  %22 = load ptr, ptr %18, align 8
  br label %dissect_aim_short_capability.exit

dissect_aim_short_capability.exit:                ; preds = %aim_find_short_capability.exit.thread.i, %aim_find_short_capability.exit.i, %21
  %23 = phi i32 [ %20, %21 ], [ %20, %aim_find_short_capability.exit.i ], [ %16, %aim_find_short_capability.exit.thread.i ]
  %24 = phi ptr [ %22, %21 ], [ @.str.110, %aim_find_short_capability.exit.i ], [ @.str.110, %aim_find_short_capability.exit.thread.i ]
  %25 = zext i16 %12 to i32
  %26 = tail call ptr (ptr, i32, ptr, i32, i32, i32, ptr, ...) @proto_tree_add_uint_format(ptr noundef %7, i32 noundef %23, ptr noundef %2, i32 noundef %.08, i32 noundef 2, i32 noundef %25, ptr noundef nonnull @.str.535, ptr noundef %24, i32 noundef %25)
  %27 = add i32 %.08, 2
  %28 = tail call i32 @tvb_reported_length_remaining(ptr noundef %2, i32 noundef %27)
  %29 = icmp sgt i32 %28, 0
  br i1 %29, label %11, label %._crit_edge, !llvm.loop !19

._crit_edge:                                      ; preds = %dissect_aim_short_capability.exit, %4
  %30 = tail call i32 @tvb_reported_length(ptr noundef %2)
  ret i32 %30
}